target datalayout = "e-m:e-p270:32:32-p271:32:32-p272:64:64-i64:64-i128:128-f80:128-n8:16:32:64-S128"
target triple = "x86_64-pc-linux-gnu"

%struct.mspack_system = type { ptr, ptr, ptr, ptr, ptr, ptr, ptr, ptr, ptr, ptr, ptr }
%struct.mskwaj_decompressor_p = type { %struct.mskwaj_decompressor, ptr, i32 }
%struct.mskwaj_decompressor = type { ptr, ptr, ptr, ptr, ptr }

@mspack_default_system = external global ptr, align 8

; Function Attrs: nounwind uwtable
define ptr @mspack_create_kwaj_decompressor(ptr noundef %0) #0 {
  %2 = alloca ptr, align 8
  %3 = alloca ptr, align 8
  %4 = alloca ptr, align 8
  store ptr %0, ptr %3, align 8
  store ptr null, ptr %4, align 8
  %5 = load ptr, ptr %3, align 8
  %6 = icmp ne ptr %5, null
  br i1 %6, label %9, label %7

7:                                                ; preds = %1
  %8 = load ptr, ptr @mspack_default_system, align 8
  store ptr %8, ptr %3, align 8
  br label %9

9:                                                ; preds = %7, %1
  %10 = load ptr, ptr %3, align 8
  %11 = call i32 @mspack_valid_system(ptr noundef %10)
  %12 = icmp ne i32 %11, 0
  br i1 %12, label %14, label %13

13:                                               ; preds = %9
  store ptr null, ptr %2, align 8
  br label %44

14:                                               ; preds = %9
  %15 = load ptr, ptr %3, align 8
  %16 = getelementptr inbounds %struct.mspack_system, ptr %15, i32 0, i32 7
  %17 = load ptr, ptr %16, align 8
  %18 = load ptr, ptr %3, align 8
  %19 = call ptr %17(ptr noundef %18, i64 noundef 56)
  store ptr %19, ptr %4, align 8
  %20 = icmp ne ptr %19, null
  br i1 %20, label %21, label %42

21:                                               ; preds = %14
  %22 = load ptr, ptr %4, align 8
  %23 = getelementptr inbounds %struct.mskwaj_decompressor_p, ptr %22, i32 0, i32 0
  %24 = getelementptr inbounds %struct.mskwaj_decompressor, ptr %23, i32 0, i32 0
  store ptr @kwajd_open, ptr %24, align 8
  %25 = load ptr, ptr %4, align 8
  %26 = getelementptr inbounds %struct.mskwaj_decompressor_p, ptr %25, i32 0, i32 0
  %27 = getelementptr inbounds %struct.mskwaj_decompressor, ptr %26, i32 0, i32 1
  store ptr @kwajd_close, ptr %27, align 8
  %28 = load ptr, ptr %4, align 8
  %29 = getelementptr inbounds %struct.mskwaj_decompressor_p, ptr %28, i32 0, i32 0
  %30 = getelementptr inbounds %struct.mskwaj_decompressor, ptr %29, i32 0, i32 2
  store ptr @kwajd_extract, ptr %30, align 8
  %31 = load ptr, ptr %4, align 8
  %32 = getelementptr inbounds %struct.mskwaj_decompressor_p, ptr %31, i32 0, i32 0
  %33 = getelementptr inbounds %struct.mskwaj_decompressor, ptr %32, i32 0, i32 3
  store ptr @kwajd_decompress, ptr %33, align 8
  %34 = load ptr, ptr %4, align 8
  %35 = getelementptr inbounds %struct.mskwaj_decompressor_p, ptr %34, i32 0, i32 0
  %36 = getelementptr inbounds %struct.mskwaj_decompressor, ptr %35, i32 0, i32 4
  store ptr @kwajd_error, ptr %36, align 8
  %37 = load ptr, ptr %3, align 8
  %38 = load ptr, ptr %4, align 8
  %39 = getelementptr inbounds %struct.mskwaj_decompressor_p, ptr %38, i32 0, i32 1
  store ptr %37, ptr %39, align 8
  %40 = load ptr, ptr %4, align 8
  %41 = getelementptr inbounds %struct.mskwaj_decompressor_p, ptr %40, i32 0, i32 2
  store i32 0, ptr %41, align 8
  br label %42

42:                                               ; preds = %21, %14
  %43 = load ptr, ptr %4, align 8
  store ptr %43, ptr %2, align 8
  br label %44

44:                                               ; preds = %42, %13
  %45 = load ptr, ptr %2, align 8
  ret ptr %45
}